; Function Attrs: mustprogress uwtable
define hidden void @_ZN12seq_rewriter15mk_in_antimirovEP4exprS1_(ptr dead_on_unwind noalias writable writeonly sret(%class.obj_ref) align 8 captures(none) initializes((0, 16)) %0, ptr noundef nonnull align 8 dereferenceable(497) %1, ptr noundef %2, ptr noundef %3) local_unnamed_addr #3 align 2 personality ptr @__gxx_personality_v0 {
  %5 = alloca %class.obj_ref, align 8
  call void @llvm.lifetime.start.p0(i64 16, ptr nonnull %5) #28
  call void @_ZN12seq_rewriter19mk_in_antimirov_recEP4exprS1_(ptr dead_on_unwind nonnull writable sret(%class.obj_ref) align 8 %5, ptr noundef nonnull align 8 dereferenceable(497) %1, ptr noundef %2, ptr noundef %3)
  %6 = load ptr, ptr %5, align 8, !tbaa !11
  %7 = load ptr, ptr %1, align 8, !tbaa !85
  store ptr %6, ptr %0, align 8, !tbaa !11
  %8 = getelementptr inbounds nuw i8, ptr %0, i64 8
  store ptr %7, ptr %8, align 8, !tbaa !12
  %.not.i.i = icmp eq ptr %6, null
  br i1 %.not.i.i, label %_ZN7obj_refI4expr11ast_managerED2Ev.exit, label %9

9:                                                ; preds = %4
  %10 = getelementptr inbounds nuw i8, ptr %6, i64 8
  %11 = load i32, ptr %10, align 4, !tbaa !99
  %12 = icmp eq i32 %11, 0
  br i1 %12, label %13, label %_ZN7obj_refI4expr11ast_managerED2Ev.exit

13:                                               ; preds = %9
  %14 = getelementptr inbounds nuw i8, ptr %5, i64 8
  %15 = load ptr, ptr %14, align 8, !tbaa !8
  invoke void @_ZN11ast_manager11delete_nodeEP3ast(ptr noundef nonnull align 8 dereferenceable(976) %15, ptr noundef nonnull %6)
          to label %_ZN7obj_refI4expr11ast_managerED2Ev.exit unwind label %16

16:                                               ; preds = %13
  %17 = landingpad { ptr, i32 }
          catch ptr null
  %18 = extractvalue { ptr, i32 } %17, 0
  call void @__clang_call_terminate(ptr %18) #29
  unreachable

_ZN7obj_refI4expr11ast_managerED2Ev.exit:         ; preds = %4, %9, %13
  call void @llvm.lifetime.end.p0(i64 16, ptr nonnull %5) #28
  ret void
}